target datalayout = "e-m:e-p270:32:32-p271:32:32-p272:64:64-i64:64-i128:128-f80:128-n8:16:32:64-S128"
target triple = "x86_64-pc-linux-gnu"

%struct.jit_State = type { %struct.GCtrace, ptr, ptr, ptr, ptr, ptr, ptr, i32, i32, i32, i8, i8, %struct.IRType1, i8, %struct.FoldState, ptr, i32, i32, i32, i32, i32, i32, i32, [1 x i32], [5 x %union.TValue], [3 x %union.TValue], ptr, i32, i32, i32, i32, ptr, ptr, i32, i32, i8, ptr, i32, i32, i16, [101 x i16], [258 x i32], [15 x i32], [16 x ptr], [64 x %struct.HotPenalty], i32, [16 x %struct.BPropEntry], i32, %struct.ScEvEntry, ptr, i32, i32, i32, ptr, i32, i32, ptr, ptr, ptr, i64, i64, %union.TValue, ptr, i32, i32 }
%struct.GCtrace = type { %struct.GCRef, i8, i8, i16, i32, i32, %struct.GCRef, ptr, i32, i32, ptr, ptr, %struct.GCRef, %struct.MRef, i32, i32, ptr, i32, i16, i16, i16, i16, i16, i16, i16, i8, i8, i8, i8 }
%struct.GCRef = type { i64 }
%struct.MRef = type { i64 }
%struct.IRType1 = type { i8 }
%struct.FoldState = type { %union.IRIns, [2 x %union.IRIns], [2 x %union.IRIns] }
%union.IRIns = type { %struct.GCRef }
%struct.HotPenalty = type { %struct.MRef, i16, i16 }
%struct.BPropEntry = type { i16, i16, i32 }
%struct.ScEvEntry = type { %struct.MRef, i16, i16, i16, i16, %struct.IRType1, i8 }
%union.TValue = type { i64 }
%struct.anon.0 = type { i32, %struct.IRType1, i8, i8, i8 }
%struct.anon = type { i16, i16, i16, i16 }

; Function Attrs: nounwind uwtable
define internal i32 @fold_reassoc_shift(ptr noundef %0) #0 {
  %2 = alloca i32, align 4
  %3 = alloca ptr, align 8
  %4 = alloca ptr, align 8
  %5 = alloca i32, align 4
  %6 = alloca i32, align 4
  %7 = alloca i32, align 4
  store ptr %0, ptr %3, align 8, !tbaa !4
  call void @llvm.lifetime.start.p0(i64 8, ptr %4) #8
  %8 = load ptr, ptr %3, align 8, !tbaa !4
  %9 = getelementptr inbounds nuw %struct.jit_State, ptr %8, i32 0, i32 0
  %10 = getelementptr inbounds nuw %struct.GCtrace, ptr %9, i32 0, i32 7
  %11 = load ptr, ptr %10, align 8, !tbaa !32
  %12 = load ptr, ptr %3, align 8, !tbaa !4
  %13 = getelementptr inbounds nuw %struct.jit_State, ptr %12, i32 0, i32 14
  %14 = getelementptr inbounds nuw %struct.FoldState, ptr %13, i32 0, i32 1
  %15 = getelementptr inbounds [2 x %union.IRIns], ptr %14, i64 0, i64 0
  %16 = getelementptr inbounds nuw %struct.anon, ptr %15, i32 0, i32 1
  %17 = load i16, ptr %16, align 2, !tbaa !29
  %18 = zext i16 %17 to i64
  %19 = getelementptr inbounds nuw %union.IRIns, ptr %11, i64 %18
  store ptr %19, ptr %4, align 8, !tbaa !38
  %20 = load ptr, ptr %3, align 8, !tbaa !4
  %21 = getelementptr inbounds nuw %struct.jit_State, ptr %20, i32 0, i32 14
  %22 = getelementptr inbounds nuw %struct.FoldState, ptr %21, i32 0, i32 1
  %23 = getelementptr inbounds [2 x %union.IRIns], ptr %22, i64 0, i64 0
  %24 = getelementptr inbounds nuw %struct.anon.0, ptr %23, i32 0, i32 1
  %25 = getelementptr inbounds nuw %struct.IRType1, ptr %24, i32 0, i32 0
  %26 = load i8, ptr %25, align 4, !tbaa !29
  %27 = zext i8 %26 to i32
  %28 = and i32 %27, 64
  %29 = icmp ne i32 %28, 0
  br i1 %29, label %30, label %31

30:                                               ; preds = %1
  store i32 0, ptr %2, align 4
  store i32 1, ptr %5, align 4
  br label %130

31:                                               ; preds = %1
  %32 = load ptr, ptr %4, align 8, !tbaa !38
  %33 = getelementptr inbounds nuw %struct.anon.0, ptr %32, i32 0, i32 2
  %34 = load i8, ptr %33, align 1, !tbaa !29
  %35 = zext i8 %34 to i32
  %36 = icmp eq i32 %35, 23
  br i1 %36, label %37, label %129

37:                                               ; preds = %31
  call void @llvm.lifetime.start.p0(i64 4, ptr %6) #8
  %38 = load ptr, ptr %3, align 8, !tbaa !4
  %39 = getelementptr inbounds nuw %struct.jit_State, ptr %38, i32 0, i32 14
  %40 = getelementptr inbounds nuw %struct.FoldState, ptr %39, i32 0, i32 0
  %41 = getelementptr inbounds nuw %struct.anon.0, ptr %40, i32 0, i32 1
  %42 = getelementptr inbounds nuw %struct.IRType1, ptr %41, i32 0, i32 0
  %43 = load i8, ptr %42, align 4, !tbaa !29
  %44 = zext i8 %43 to i32
  %45 = and i32 %44, 31
  %46 = lshr i32 6315993, %45
  %47 = and i32 %46, 1
  %48 = icmp ne i32 %47, 0
  %49 = select i1 %48, i32 63, i32 31
  store i32 %49, ptr %6, align 4, !tbaa !30
  call void @llvm.lifetime.start.p0(i64 4, ptr %7) #8
  %50 = load ptr, ptr %4, align 8, !tbaa !38
  %51 = load i32, ptr %50, align 8, !tbaa !29
  %52 = load i32, ptr %6, align 4, !tbaa !30
  %53 = and i32 %51, %52
  %54 = load ptr, ptr %3, align 8, !tbaa !4
  %55 = getelementptr inbounds nuw %struct.jit_State, ptr %54, i32 0, i32 14
  %56 = getelementptr inbounds nuw %struct.FoldState, ptr %55, i32 0, i32 2
  %57 = getelementptr inbounds [2 x %union.IRIns], ptr %56, i64 0, i64 0
  %58 = load i32, ptr %57, align 8, !tbaa !29
  %59 = load i32, ptr %6, align 4, !tbaa !30
  %60 = and i32 %58, %59
  %61 = add nsw i32 %53, %60
  store i32 %61, ptr %7, align 4, !tbaa !30
  %62 = load i32, ptr %7, align 4, !tbaa !30
  %63 = load i32, ptr %6, align 4, !tbaa !30
  %64 = icmp sgt i32 %62, %63
  br i1 %64, label %65, label %109

65:                                               ; preds = %37
  %66 = load ptr, ptr %3, align 8, !tbaa !4
  %67 = getelementptr inbounds nuw %struct.jit_State, ptr %66, i32 0, i32 14
  %68 = getelementptr inbounds nuw %struct.FoldState, ptr %67, i32 0, i32 0
  %69 = getelementptr inbounds nuw %struct.anon.0, ptr %68, i32 0, i32 2
  %70 = load i8, ptr %69, align 1, !tbaa !29
  %71 = zext i8 %70 to i32
  %72 = icmp eq i32 %71, 36
  br i1 %72, label %81, label %73

73:                                               ; preds = %65
  %74 = load ptr, ptr %3, align 8, !tbaa !4
  %75 = getelementptr inbounds nuw %struct.jit_State, ptr %74, i32 0, i32 14
  %76 = getelementptr inbounds nuw %struct.FoldState, ptr %75, i32 0, i32 0
  %77 = getelementptr inbounds nuw %struct.anon.0, ptr %76, i32 0, i32 2
  %78 = load i8, ptr %77, align 1, !tbaa !29
  %79 = zext i8 %78 to i32
  %80 = icmp eq i32 %79, 37
  br i1 %80, label %81, label %93

81:                                               ; preds = %73, %65
  %82 = load i32, ptr %6, align 4, !tbaa !30
  %83 = icmp eq i32 %82, 31
  br i1 %83, label %84, label %88

84:                                               ; preds = %81
  %85 = load ptr, ptr %3, align 8, !tbaa !4
  %86 = getelementptr inbounds nuw %struct.jit_State, ptr %85, i32 0, i32 14
  %87 = getelementptr inbounds nuw %struct.FoldState, ptr %86, i32 0, i32 0
  store i32 0, ptr %87, align 8, !tbaa !29
  br label %91

88:                                               ; preds = %81
  %89 = load ptr, ptr %3, align 8, !tbaa !4
  %90 = call i32 @lj_ir_kint64(ptr noundef %89, i64 noundef 0)
  br label %91

91:                                               ; preds = %88, %84
  %92 = phi i32 [ 2, %84 ], [ %90, %88 ]
  store i32 %92, ptr %2, align 4
  store i32 1, ptr %5, align 4
  br label %128

93:                                               ; preds = %73
  %94 = load ptr, ptr %3, align 8, !tbaa !4
  %95 = getelementptr inbounds nuw %struct.jit_State, ptr %94, i32 0, i32 14
  %96 = getelementptr inbounds nuw %struct.FoldState, ptr %95, i32 0, i32 0
  %97 = getelementptr inbounds nuw %struct.anon.0, ptr %96, i32 0, i32 2
  %98 = load i8, ptr %97, align 1, !tbaa !29
  %99 = zext i8 %98 to i32
  %100 = icmp eq i32 %99, 38
  br i1 %100, label %101, label %103

101:                                              ; preds = %93
  %102 = load i32, ptr %6, align 4, !tbaa !30
  store i32 %102, ptr %7, align 4, !tbaa !30
  br label %107

103:                                              ; preds = %93
  %104 = load i32, ptr %6, align 4, !tbaa !30
  %105 = load i32, ptr %7, align 4, !tbaa !30
  %106 = and i32 %105, %104
  store i32 %106, ptr %7, align 4, !tbaa !30
  br label %107

107:                                              ; preds = %103, %101
  br label %108

108:                                              ; preds = %107
  br label %109

109:                                              ; preds = %108, %37
  %110 = load ptr, ptr %3, align 8, !tbaa !4
  %111 = getelementptr inbounds nuw %struct.jit_State, ptr %110, i32 0, i32 14
  %112 = getelementptr inbounds nuw %struct.FoldState, ptr %111, i32 0, i32 1
  %113 = getelementptr inbounds [2 x %union.IRIns], ptr %112, i64 0, i64 0
  %114 = getelementptr inbounds nuw %struct.anon, ptr %113, i32 0, i32 0
  %115 = load i16, ptr %114, align 8, !tbaa !29
  %116 = load ptr, ptr %3, align 8, !tbaa !4
  %117 = getelementptr inbounds nuw %struct.jit_State, ptr %116, i32 0, i32 14
  %118 = getelementptr inbounds nuw %struct.FoldState, ptr %117, i32 0, i32 0
  %119 = getelementptr inbounds nuw %struct.anon, ptr %118, i32 0, i32 0
  store i16 %115, ptr %119, align 8, !tbaa !29
  %120 = load ptr, ptr %3, align 8, !tbaa !4
  %121 = load i32, ptr %7, align 4, !tbaa !30
  %122 = call i32 @lj_ir_kint(ptr noundef %120, i32 noundef %121)
  %123 = trunc i32 %122 to i16
  %124 = load ptr, ptr %3, align 8, !tbaa !4
  %125 = getelementptr inbounds nuw %struct.jit_State, ptr %124, i32 0, i32 14
  %126 = getelementptr inbounds nuw %struct.FoldState, ptr %125, i32 0, i32 0
  %127 = getelementptr inbounds nuw %struct.anon, ptr %126, i32 0, i32 1
  store i16 %123, ptr %127, align 2, !tbaa !29
  store i32 1, ptr %2, align 4
  store i32 1, ptr %5, align 4
  br label %128

128:                                              ; preds = %109, %91
  call void @llvm.lifetime.end.p0(i64 4, ptr %7) #8
  call void @llvm.lifetime.end.p0(i64 4, ptr %6) #8
  br label %130

129:                                              ; preds = %31
  store i32 0, ptr %2, align 4
  store i32 1, ptr %5, align 4
  br label %130

130:                                              ; preds = %129, %128, %30
  call void @llvm.lifetime.end.p0(i64 8, ptr %4) #8
  %131 = load i32, ptr %2, align 4
  ret i32 %131
}