; Function Attrs: nounwind uwtable
define internal i32 @fold_reassoc_shift(ptr noundef %0) #0 {
  %2 = getelementptr inbounds nuw i8, ptr %0, i64 32
  %3 = load ptr, ptr %2, align 8, !tbaa !30
  %4 = getelementptr inbounds nuw i8, ptr %0, i64 184
  %5 = getelementptr inbounds nuw i8, ptr %0, i64 192
  %6 = getelementptr inbounds nuw i8, ptr %0, i64 194
  %7 = load i16, ptr %6, align 2, !tbaa !28
  %8 = zext i16 %7 to i64
  %9 = getelementptr inbounds nuw %union.IRIns, ptr %3, i64 %8
  %10 = getelementptr inbounds nuw i8, ptr %0, i64 196
  %11 = load i8, ptr %10, align 4, !tbaa !28
  %12 = and i8 %11, 64
  %.not = icmp eq i8 %12, 0
  br i1 %.not, label %13, label %46

13:                                               ; preds = %1
  %14 = getelementptr inbounds nuw i8, ptr %9, i64 5
  %15 = load i8, ptr %14, align 1, !tbaa !28
  %16 = icmp eq i8 %15, 23
  br i1 %16, label %17, label %46

17:                                               ; preds = %13
  %18 = getelementptr inbounds nuw i8, ptr %0, i64 188
  %19 = load i8, ptr %18, align 4, !tbaa !28
  %20 = and i8 %19, 31
  %21 = zext nneg i8 %20 to i32
  %22 = shl nuw i32 1, %21
  %23 = and i32 %22, 6315993
  %.not30 = icmp eq i32 %23, 0
  %24 = select i1 %.not30, i32 31, i32 63
  %25 = load i32, ptr %9, align 8, !tbaa !28
  %26 = and i32 %24, %25
  %27 = getelementptr inbounds nuw i8, ptr %0, i64 208
  %28 = load i32, ptr %27, align 8, !tbaa !28
  %29 = and i32 %24, %28
  %30 = add nuw nsw i32 %26, %29
  %31 = icmp samesign ugt i32 %30, %24
  br i1 %31, label %32, label %41

32:                                               ; preds = %17
  %33 = getelementptr inbounds nuw i8, ptr %0, i64 189
  %34 = load i8, ptr %33, align 1, !tbaa !28
  switch i8 %34, label %39 [
    i8 36, label %35
    i8 37, label %35
    i8 38, label %41
  ]

35:                                               ; preds = %32, %32
  br i1 %.not30, label %36, label %37

36:                                               ; preds = %35
  store i32 0, ptr %4, align 8, !tbaa !28
  br label %46

37:                                               ; preds = %35
  %38 = tail call i32 @lj_ir_kint64(ptr noundef nonnull %0, i64 noundef 0) #12
  br label %46

39:                                               ; preds = %32
  %40 = and i32 %30, %24
  br label %41

41:                                               ; preds = %32, %39, %17
  %.0 = phi i32 [ %40, %39 ], [ %30, %17 ], [ %24, %32 ]
  %42 = load i16, ptr %5, align 8, !tbaa !28
  store i16 %42, ptr %4, align 8, !tbaa !28
  %43 = tail call i32 @lj_ir_kint(ptr noundef nonnull %0, i32 noundef %.0) #12
  %44 = trunc i32 %43 to i16
  %45 = getelementptr inbounds nuw i8, ptr %0, i64 186
  store i16 %44, ptr %45, align 2, !tbaa !28
  br label %46

46:                                               ; preds = %13, %41, %37, %36, %1
  %.025 = phi i32 [ 0, %1 ], [ 1, %41 ], [ 2, %36 ], [ %38, %37 ], [ 0, %13 ]
  ret i32 %.025
}